target datalayout = "e-m:e-p270:32:32-p271:32:32-p272:64:64-i64:64-i128:128-f80:128-n8:16:32:64-S128"
target triple = "x86_64-pc-linux-gnu"

; Function Attrs: nounwind uwtable
define internal i32 @parse_packet_header(ptr noundef %0, ptr noundef %1, ptr noundef %2) #0 {
  %4 = alloca i32, align 4
  %5 = alloca ptr, align 8
  %6 = alloca ptr, align 8
  %7 = alloca ptr, align 8
  store ptr %0, ptr %5, align 8, !tbaa !30
  store ptr %1, ptr %6, align 8, !tbaa !91
  store ptr %2, ptr %7, align 8, !tbaa !92
  %8 = load ptr, ptr %5, align 8, !tbaa !30
  %9 = call i32 @avio_rb32(ptr noundef %8)
  %10 = icmp ne i32 %9, 0
  br i1 %10, label %11, label %12

11:                                               ; preds = %3
  store i32 0, ptr %4, align 4
  br label %52

12:                                               ; preds = %3
  %13 = load ptr, ptr %5, align 8, !tbaa !30
  %14 = call i32 @avio_r8(ptr noundef %13)
  %15 = icmp ne i32 %14, 1
  br i1 %15, label %16, label %17

16:                                               ; preds = %12
  store i32 0, ptr %4, align 4
  br label %52

17:                                               ; preds = %12
  %18 = load ptr, ptr %5, align 8, !tbaa !30
  %19 = call i32 @avio_r8(ptr noundef %18)
  %20 = load ptr, ptr %6, align 8, !tbaa !91
  store i32 %19, ptr %20, align 4, !tbaa !34
  %21 = load ptr, ptr %5, align 8, !tbaa !30
  %22 = call i32 @avio_rb32(ptr noundef %21)
  %23 = load ptr, ptr %7, align 8, !tbaa !92
  store i32 %22, ptr %23, align 4, !tbaa !34
  %24 = load ptr, ptr %7, align 8, !tbaa !92
  %25 = load i32, ptr %24, align 4, !tbaa !34
  %26 = ashr i32 %25, 24
  %27 = icmp ne i32 %26, 0
  br i1 %27, label %32, label %28

28:                                               ; preds = %17
  %29 = load ptr, ptr %7, align 8, !tbaa !92
  %30 = load i32, ptr %29, align 4, !tbaa !34
  %31 = icmp slt i32 %30, 16
  br i1 %31, label %32, label %33

32:                                               ; preds = %28, %17
  store i32 0, ptr %4, align 4
  br label %52

33:                                               ; preds = %28
  %34 = load ptr, ptr %7, align 8, !tbaa !92
  %35 = load i32, ptr %34, align 4, !tbaa !34
  %36 = sub nsw i32 %35, 16
  store i32 %36, ptr %34, align 4, !tbaa !34
  %37 = load ptr, ptr %5, align 8, !tbaa !30
  %38 = call i32 @avio_rb32(ptr noundef %37)
  %39 = icmp ne i32 %38, 0
  br i1 %39, label %40, label %41

40:                                               ; preds = %33
  store i32 0, ptr %4, align 4
  br label %52

41:                                               ; preds = %33
  %42 = load ptr, ptr %5, align 8, !tbaa !30
  %43 = call i32 @avio_r8(ptr noundef %42)
  %44 = icmp ne i32 %43, 225
  br i1 %44, label %45, label %46

45:                                               ; preds = %41
  store i32 0, ptr %4, align 4
  br label %52

46:                                               ; preds = %41
  %47 = load ptr, ptr %5, align 8, !tbaa !30
  %48 = call i32 @avio_r8(ptr noundef %47)
  %49 = icmp ne i32 %48, 226
  br i1 %49, label %50, label %51

50:                                               ; preds = %46
  store i32 0, ptr %4, align 4
  br label %52

51:                                               ; preds = %46
  store i32 1, ptr %4, align 4
  br label %52

52:                                               ; preds = %51, %50, %45, %40, %32, %16, %11
  %53 = load i32, ptr %4, align 4
  ret i32 %53
}