; Function Attrs: nounwind uwtable
define internal fastcc range(i32 0, 2) i32 @parse_packet_header(ptr noundef %0, ptr noundef nonnull writeonly captures(none) %1, ptr noundef nonnull writeonly captures(none) %2) unnamed_addr #1 {
  %4 = tail call i32 @avio_rb32(ptr noundef %0) #7
  %.not = icmp eq i32 %4, 0
  br i1 %.not, label %5, label %18

5:                                                ; preds = %3
  %6 = tail call i32 @avio_r8(ptr noundef %0) #7
  %.not13 = icmp eq i32 %6, 1
  br i1 %.not13, label %7, label %18

7:                                                ; preds = %5
  %8 = tail call i32 @avio_r8(ptr noundef %0) #7
  store i32 %8, ptr %1, align 4, !tbaa !27
  %9 = tail call i32 @avio_rb32(ptr noundef %0) #7
  store i32 %9, ptr %2, align 4, !tbaa !27
  %10 = add i32 %9, -16777216
  %or.cond = icmp ult i32 %10, -16777200
  br i1 %or.cond, label %18, label %11

11:                                               ; preds = %7
  %12 = add nsw i32 %9, -16
  store i32 %12, ptr %2, align 4, !tbaa !27
  %13 = tail call i32 @avio_rb32(ptr noundef %0) #7
  %.not15 = icmp eq i32 %13, 0
  br i1 %.not15, label %14, label %18

14:                                               ; preds = %11
  %15 = tail call i32 @avio_r8(ptr noundef %0) #7
  %.not16 = icmp eq i32 %15, 225
  br i1 %.not16, label %16, label %18

16:                                               ; preds = %14
  %17 = tail call i32 @avio_r8(ptr noundef %0) #7
  %.not17 = icmp eq i32 %17, 226
  %. = zext i1 %.not17 to i32
  br label %18

18:                                               ; preds = %16, %14, %11, %7, %5, %3
  %.0 = phi i32 [ 0, %3 ], [ 0, %5 ], [ 0, %7 ], [ 0, %11 ], [ 0, %14 ], [ %., %16 ]
  ret i32 %.0
}